target datalayout = "e-m:e-p270:32:32-p271:32:32-p272:64:64-i64:64-i128:128-f80:128-n8:16:32:64-S128"
target triple = "x86_64-pc-linux-gnu"

%"struct.std::atomic.0" = type { %"struct.std::__atomic_base" }
%"struct.std::__atomic_base" = type { i8 }
%"struct.std::atomic.1" = type { %"struct.std::__atomic_base.2" }
%"struct.std::__atomic_base.2" = type { i32 }
%"class.tbb::detail::r1::rml::private_server" = type <{ %"class.tbb::detail::r1::rml::tbb_server", ptr, i32, [4 x i8], i64, %"struct.std::atomic.1", %"struct.std::atomic.1", ptr, %"struct.std::atomic.3", %"class.tbb::detail::d1::mutex", [7 x i8] }>
%"class.tbb::detail::r1::rml::tbb_server" = type { %"class.rml::server" }
%"class.rml::server" = type { %"class.rml::versioned_object" }
%"class.rml::versioned_object" = type { ptr }
%"struct.std::atomic.3" = type { %"struct.std::__atomic_base.4" }
%"struct.std::__atomic_base.4" = type { ptr }
%"class.tbb::detail::d1::mutex" = type { %"class.tbb::detail::d1::waitable_atomic" }
%"class.tbb::detail::d1::waitable_atomic" = type { %"struct.std::atomic.0" }

; Function Attrs: mustprogress nounwind sspstrong uwtable
define linkonce_odr noundef i32 @_ZNSt13__atomic_baseIiEpLEi(ptr noundef nonnull align 4 dereferenceable(4) %0, i32 noundef %1) #5 comdat align 2 {
  %3 = alloca ptr, align 8
  %4 = alloca i32, align 4
  %5 = alloca i32, align 4
  %6 = alloca i32, align 4
  store ptr %0, ptr %3, align 8, !tbaa !59
  store i32 %1, ptr %4, align 4, !tbaa !7
  %7 = load ptr, ptr %3, align 8
  %8 = getelementptr inbounds nuw %"struct.std::__atomic_base.2", ptr %7, i32 0, i32 0
  %9 = load i32, ptr %4, align 4, !tbaa !7
  store i32 %9, ptr %5, align 4, !tbaa !7
  %10 = load i32, ptr %5, align 4
  %11 = atomicrmw add ptr %8, i32 %10 seq_cst, align 4
  %12 = add i32 %11, %10
  store i32 %12, ptr %6, align 4
  %13 = load i32, ptr %6, align 4, !tbaa !7
  ret i32 %13
}

; Function Attrs: mustprogress sspstrong uwtable
define void @_ZN3tbb6detail2r13rml14private_server25adjust_job_count_estimateEi(ptr noundef nonnull align 8 dereferenceable(57) %0, i32 noundef %1) unnamed_addr #0 align 2 {
  %3 = alloca ptr, align 8
  %4 = alloca i32, align 4
  store ptr %0, ptr %3, align 8, !tbaa !46
  store i32 %1, ptr %4, align 4, !tbaa !7
  %5 = load ptr, ptr %3, align 8
  %6 = load i32, ptr %4, align 4, !tbaa !7
  %7 = icmp slt i32 %6, 0
  br i1 %7, label %8, label %12

8:                                                ; preds = %2
  %9 = load i32, ptr %4, align 4, !tbaa !7
  %10 = getelementptr inbounds nuw %"class.tbb::detail::r1::rml::private_server", ptr %5, i32 0, i32 5
  %11 = call noundef i32 @_ZNSt13__atomic_baseIiEpLEi(ptr noundef nonnull align 4 dereferenceable(4) %10, i32 noundef %9) #11
  br label %18

12:                                               ; preds = %2
  %13 = load i32, ptr %4, align 4, !tbaa !7
  %14 = icmp sgt i32 %13, 0
  br i1 %14, label %15, label %17

15:                                               ; preds = %12
  %16 = load i32, ptr %4, align 4, !tbaa !7
  call void @_ZN3tbb6detail2r13rml14private_server9wake_someEi(ptr noundef nonnull align 8 dereferenceable(57) %5, i32 noundef %16)
  br label %17

17:                                               ; preds = %15, %12
  br label %18

18:                                               ; preds = %17, %8
  ret void
}