; Function Attrs: mustprogress sspstrong uwtable
define void @_ZN3tbb6detail2r13rml14private_server25adjust_job_count_estimateEi(ptr noundef nonnull align 8 dereferenceable(57) %0, i32 noundef %1) unnamed_addr #0 align 2 {
  %3 = icmp slt i32 %1, 0
  br i1 %3, label %4, label %7

4:                                                ; preds = %2
  %5 = getelementptr inbounds nuw i8, ptr %0, i64 32
  %6 = atomicrmw add ptr %5, i32 %1 seq_cst, align 4
  br label %9

7:                                                ; preds = %2
  %.not = icmp eq i32 %1, 0
  br i1 %.not, label %9, label %8

8:                                                ; preds = %7
  tail call void @_ZN3tbb6detail2r13rml14private_server9wake_someEi(ptr noundef nonnull align 8 dereferenceable(57) %0, i32 noundef %1)
  br label %9

9:                                                ; preds = %7, %8, %4
  ret void
}